target datalayout = "e-m:e-p270:32:32-p271:32:32-p272:64:64-i64:64-i128:128-f80:128-n8:16:32:64-S128"
target triple = "x86_64-pc-linux-gnu"

%"class.clang::SourceLocation" = type { i32 }
%"class.clang::FileID" = type { i32 }
%"struct.clang::edit::Commit::Edit" = type <{ i32, [4 x i8], %"class.llvm::StringRef", %"class.clang::SourceLocation", %"class.clang::edit::FileOffset", %"class.clang::edit::FileOffset", i32, i8, [7 x i8] }>
%"class.llvm::StringRef" = type { ptr, i64 }
%"class.clang::edit::FileOffset" = type { %"class.clang::FileID", i32 }
%"class.clang::edit::Commit" = type { ptr, ptr, ptr, ptr, i8, %"class.llvm::SmallVector.74", %"class.llvm::BumpPtrAllocatorImpl" }
%"class.llvm::SmallVector.74" = type { %"class.llvm::SmallVectorImpl.75", %"struct.llvm::SmallVectorStorage.78" }
%"class.llvm::SmallVectorImpl.75" = type { %"class.llvm::SmallVectorTemplateBase.76" }
%"class.llvm::SmallVectorTemplateBase.76" = type { %"class.llvm::SmallVectorTemplateCommon.77" }
%"class.llvm::SmallVectorTemplateCommon.77" = type { %"class.llvm::SmallVectorBase" }
%"class.llvm::SmallVectorBase" = type { ptr, i32, i32 }
%"struct.llvm::SmallVectorStorage.78" = type { [448 x i8] }
%"class.llvm::BumpPtrAllocatorImpl" = type { ptr, ptr, %"class.llvm::SmallVector", %"class.llvm::SmallVector.1", i64, i64 }
%"class.llvm::SmallVector" = type { %"class.llvm::SmallVectorImpl", %"struct.llvm::SmallVectorStorage" }
%"class.llvm::SmallVectorImpl" = type { %"class.llvm::SmallVectorTemplateBase" }
%"class.llvm::SmallVectorTemplateBase" = type { %"class.llvm::SmallVectorTemplateCommon" }
%"class.llvm::SmallVectorTemplateCommon" = type { %"class.llvm::SmallVectorBase" }
%"struct.llvm::SmallVectorStorage" = type { [32 x i8] }
%"class.llvm::SmallVector.1" = type { %"class.llvm::SmallVectorImpl.2" }
%"class.llvm::SmallVectorImpl.2" = type { %"class.llvm::SmallVectorTemplateBase.3" }
%"class.llvm::SmallVectorTemplateBase.3" = type { %"class.llvm::SmallVectorTemplateCommon.4" }
%"class.llvm::SmallVectorTemplateCommon.4" = type { %"class.llvm::SmallVectorBase" }

; Function Attrs: mustprogress nounwind uwtable
define linkonce_odr hidden void @_ZN5clang6FileIDC2Ev(ptr noundef nonnull align 4 dereferenceable(4) %0) unnamed_addr #0 comdat align 2 {
  %2 = alloca ptr, align 8
  store ptr %0, ptr %2, align 8
  %3 = load ptr, ptr %2, align 8
  %4 = getelementptr inbounds nuw %"class.clang::FileID", ptr %3, i32 0, i32 0
  store i32 0, ptr %4, align 4
  ret void
}

; Function Attrs: mustprogress nounwind uwtable
define linkonce_odr hidden void @_ZN5clang4edit10FileOffsetC2Ev(ptr noundef nonnull align 4 dereferenceable(8) %0) unnamed_addr #0 comdat align 2 {
  %2 = alloca ptr, align 8
  store ptr %0, ptr %2, align 8
  %3 = load ptr, ptr %2, align 8
  %4 = getelementptr inbounds nuw %"class.clang::edit::FileOffset", ptr %3, i32 0, i32 0
  call void @_ZN5clang6FileIDC2Ev(ptr noundef nonnull align 4 dereferenceable(4) %4) #6
  %5 = getelementptr inbounds nuw %"class.clang::edit::FileOffset", ptr %3, i32 0, i32 1
  store i32 0, ptr %5, align 4
  ret void
}

; Function Attrs: mustprogress nounwind uwtable
define linkonce_odr hidden void @_ZN5clang14SourceLocationC2Ev(ptr noundef nonnull align 4 dereferenceable(4) %0) unnamed_addr #0 comdat align 2 {
  %2 = alloca ptr, align 8
  store ptr %0, ptr %2, align 8
  %3 = load ptr, ptr %2, align 8
  %4 = getelementptr inbounds nuw %"class.clang::SourceLocation", ptr %3, i32 0, i32 0
  store i32 0, ptr %4, align 4
  ret void
}

; Function Attrs: mustprogress nounwind uwtable
define linkonce_odr hidden void @_ZN4llvm9StringRefC2Ev(ptr noundef nonnull align 8 dereferenceable(16) %0) unnamed_addr #0 comdat align 2 {
  %2 = alloca ptr, align 8
  store ptr %0, ptr %2, align 8
  %3 = load ptr, ptr %2, align 8
  %4 = getelementptr inbounds nuw %"class.llvm::StringRef", ptr %3, i32 0, i32 0
  store ptr null, ptr %4, align 8
  %5 = getelementptr inbounds nuw %"class.llvm::StringRef", ptr %3, i32 0, i32 1
  store i64 0, ptr %5, align 8
  ret void
}

; Function Attrs: mustprogress nounwind uwtable
define linkonce_odr hidden void @_ZN5clang4edit6Commit4EditC2Ev(ptr noundef nonnull align 8 dereferenceable(49) %0) unnamed_addr #0 comdat align 2 {
  %2 = alloca ptr, align 8
  store ptr %0, ptr %2, align 8
  %3 = load ptr, ptr %2, align 8
  %4 = getelementptr inbounds nuw %"struct.clang::edit::Commit::Edit", ptr %3, i32 0, i32 2
  call void @_ZN4llvm9StringRefC2Ev(ptr noundef nonnull align 8 dereferenceable(16) %4) #6
  %5 = getelementptr inbounds nuw %"struct.clang::edit::Commit::Edit", ptr %3, i32 0, i32 3
  call void @_ZN5clang14SourceLocationC2Ev(ptr noundef nonnull align 4 dereferenceable(4) %5) #6
  %6 = getelementptr inbounds nuw %"struct.clang::edit::Commit::Edit", ptr %3, i32 0, i32 4
  call void @_ZN5clang4edit10FileOffsetC2Ev(ptr noundef nonnull align 4 dereferenceable(8) %6) #6
  %7 = getelementptr inbounds nuw %"struct.clang::edit::Commit::Edit", ptr %3, i32 0, i32 5
  call void @_ZN5clang4edit10FileOffsetC2Ev(ptr noundef nonnull align 4 dereferenceable(8) %7) #6
  ret void
}

; Function Attrs: mustprogress nounwind uwtable
define dso_local void @_ZN5clang4edit6Commit18addInsertFromRangeENS_14SourceLocationENS0_10FileOffsetES3_jb(ptr noundef nonnull align 8 dereferenceable(600) %0, i32 %1, i64 %2, i64 %3, i32 noundef %4, i1 noundef zeroext %5) #0 align 2 {
  %7 = alloca %"class.clang::SourceLocation", align 4
  %8 = alloca %"class.clang::edit::FileOffset", align 4
  %9 = alloca %"class.clang::edit::FileOffset", align 4
  %10 = alloca ptr, align 8
  %11 = alloca i32, align 4
  %12 = alloca i8, align 1
  %13 = alloca %"struct.clang::edit::Commit::Edit", align 8
  %14 = getelementptr inbounds nuw %"class.clang::SourceLocation", ptr %7, i32 0, i32 0
  store i32 %1, ptr %14, align 4
  store i64 %2, ptr %8, align 4
  store i64 %3, ptr %9, align 4
  store ptr %0, ptr %10, align 8
  store i32 %4, ptr %11, align 4
  %15 = zext i1 %5 to i8
  store i8 %15, ptr %12, align 1
  %16 = load ptr, ptr %10, align 8
  %17 = load i32, ptr %11, align 4
  %18 = icmp eq i32 %17, 0
  br i1 %18, label %19, label %20

19:                                               ; preds = %6
  br label %32

20:                                               ; preds = %6
  call void @_ZN5clang4edit6Commit4EditC2Ev(ptr noundef nonnull align 8 dereferenceable(49) %13) #6
  %21 = getelementptr inbounds nuw %"struct.clang::edit::Commit::Edit", ptr %13, i32 0, i32 0
  store i32 1, ptr %21, align 8
  %22 = getelementptr inbounds nuw %"struct.clang::edit::Commit::Edit", ptr %13, i32 0, i32 3
  call void @llvm.memcpy.p0.p0.i64(ptr align 8 %22, ptr align 4 %7, i64 4, i1 false)
  %23 = getelementptr inbounds nuw %"struct.clang::edit::Commit::Edit", ptr %13, i32 0, i32 4
  call void @llvm.memcpy.p0.p0.i64(ptr align 4 %23, ptr align 4 %8, i64 8, i1 false)
  %24 = getelementptr inbounds nuw %"struct.clang::edit::Commit::Edit", ptr %13, i32 0, i32 5
  call void @llvm.memcpy.p0.p0.i64(ptr align 4 %24, ptr align 4 %9, i64 8, i1 false)
  %25 = load i32, ptr %11, align 4
  %26 = getelementptr inbounds nuw %"struct.clang::edit::Commit::Edit", ptr %13, i32 0, i32 6
  store i32 %25, ptr %26, align 4
  %27 = load i8, ptr %12, align 1
  %28 = trunc i8 %27 to i1
  %29 = getelementptr inbounds nuw %"struct.clang::edit::Commit::Edit", ptr %13, i32 0, i32 7
  %30 = zext i1 %28 to i8
  store i8 %30, ptr %29, align 8
  %31 = getelementptr inbounds nuw %"class.clang::edit::Commit", ptr %16, i32 0, i32 5
  call void @_ZN4llvm23SmallVectorTemplateBaseIN5clang4edit6Commit4EditELb1EE9push_backERKS4_(ptr noundef nonnull align 8 dereferenceable(16) %31, ptr noundef nonnull align 8 dereferenceable(49) %13)
  br label %32

32:                                               ; preds = %20, %19
  ret void
}