; Function Attrs: mustprogress nounwind uwtable
define dso_local void @_ZN5clang4edit6Commit18addInsertFromRangeENS_14SourceLocationENS0_10FileOffsetES3_jb(ptr noundef nonnull align 8 dereferenceable(600) %0, i32 %1, i64 %2, i64 %3, i32 noundef %4, i1 noundef zeroext %5) local_unnamed_addr #0 align 2 {
  %7 = alloca %"struct.clang::edit::Commit::Edit", align 8
  %8 = icmp eq i32 %4, 0
  br i1 %8, label %18, label %9

9:                                                ; preds = %6
  %10 = zext i1 %5 to i8
  %11 = getelementptr inbounds nuw i8, ptr %7, i64 8
  call void @llvm.memset.p0.i64(ptr noundef nonnull align 8 dereferenceable(36) %11, i8 0, i64 16, i1 false)
  store i32 1, ptr %7, align 8
  %12 = getelementptr inbounds nuw i8, ptr %7, i64 24
  store i32 %1, ptr %12, align 8
  %13 = getelementptr inbounds nuw i8, ptr %7, i64 28
  store i64 %2, ptr %13, align 4
  %14 = getelementptr inbounds nuw i8, ptr %7, i64 36
  store i64 %3, ptr %14, align 4
  %15 = getelementptr inbounds nuw i8, ptr %7, i64 44
  store i32 %4, ptr %15, align 4
  %16 = getelementptr inbounds nuw i8, ptr %7, i64 48
  store i8 %10, ptr %16, align 8
  %17 = getelementptr inbounds nuw i8, ptr %0, i64 40
  call void @_ZN4llvm23SmallVectorTemplateBaseIN5clang4edit6Commit4EditELb1EE9push_backERKS4_(ptr noundef nonnull align 8 dereferenceable(16) %17, ptr noundef nonnull align 8 dereferenceable(49) %7)
  br label %18

18:                                               ; preds = %6, %9
  ret void
}